target datalayout = "e-m:e-p270:32:32-p271:32:32-p272:64:64-i64:64-i128:128-f80:128-n8:16:32:64-S128"
target triple = "x86_64-unknown-linux-gnu"

%struct.misa_ext_info = type { ptr, ptr }

@.str.218 = private unnamed_addr constant [27 x i8] c"../qemu/target/riscv/cpu.c\00", align 1
@__func__.riscv_get_misa_ext_name = private unnamed_addr constant [24 x i8] c"riscv_get_misa_ext_name\00", align 1
@.str.220 = private unnamed_addr constant [12 x i8] c"val != NULL\00", align 1
@__func__.riscv_validate_misa_info_idx = private unnamed_addr constant [29 x i8] c"riscv_validate_misa_info_idx\00", align 1
@.str.283 = private unnamed_addr constant [9 x i8] c"bit != 0\00", align 1
@.str.284 = private unnamed_addr constant [36 x i8] c"idx < ARRAY_SIZE(misa_ext_info_arr)\00", align 1

; Function Attrs: nounwind sspstrong uwtable
define internal i32 @riscv_validate_misa_info_idx(i32 noundef %bit) #0 {
entry:
  %bit.addr = alloca i32, align 4
  %idx = alloca i32, align 4
  store i32 %bit, ptr %bit.addr, align 4
  br label %do.body

do.body:                                          ; preds = %entry
  %0 = load i32, ptr %bit.addr, align 4
  %cmp = icmp ne i32 %0, 0
  br i1 %cmp, label %if.then, label %if.else

if.then:                                          ; preds = %do.body
  br label %if.end

if.else:                                          ; preds = %do.body
  call void @g_assertion_message_expr(ptr noundef null, ptr noundef @.str.218, i32 noundef 1267, ptr noundef @__func__.riscv_validate_misa_info_idx, ptr noundef @.str.283) #8
  unreachable

if.end:                                           ; preds = %if.then
  br label %do.end

do.end:                                           ; preds = %if.end
  %1 = load i32, ptr %bit.addr, align 4
  %2 = call i32 @llvm.cttz.i32(i32 %1, i1 true)
  store i32 %2, ptr %idx, align 4
  br label %do.body1

do.body1:                                         ; preds = %do.end
  %3 = load i32, ptr %idx, align 4
  %conv = sext i32 %3 to i64
  %cmp2 = icmp ult i64 %conv, 22
  br i1 %cmp2, label %if.then4, label %if.else5

if.then4:                                         ; preds = %do.body1
  br label %if.end6

if.else5:                                         ; preds = %do.body1
  call void @g_assertion_message_expr(ptr noundef null, ptr noundef @.str.218, i32 noundef 1270, ptr noundef @__func__.riscv_validate_misa_info_idx, ptr noundef @.str.284) #8
  unreachable

if.end6:                                          ; preds = %if.then4
  br label %do.end7

do.end7:                                          ; preds = %if.end6
  %4 = load i32, ptr %idx, align 4
  ret i32 %4
}

; Function Attrs: nounwind sspstrong uwtable
define dso_local ptr @riscv_get_misa_ext_name(i32 noundef %bit) #0 {
entry:
  %bit.addr = alloca i32, align 4
  %idx = alloca i32, align 4
  %val = alloca ptr, align 8
  store i32 %bit, ptr %bit.addr, align 4
  %0 = load i32, ptr %bit.addr, align 4
  %call = call i32 @riscv_validate_misa_info_idx(i32 noundef %0)
  store i32 %call, ptr %idx, align 4
  %1 = load i32, ptr %idx, align 4
  %idxprom = sext i32 %1 to i64
  %arrayidx = getelementptr [22 x %struct.misa_ext_info], ptr @misa_ext_info_arr, i64 0, i64 %idxprom
  %name = getelementptr inbounds %struct.misa_ext_info, ptr %arrayidx, i32 0, i32 0
  %2 = load ptr, ptr %name, align 16
  store ptr %2, ptr %val, align 8
  br label %do.body

do.body:                                          ; preds = %entry
  %3 = load ptr, ptr %val, align 8
  %cmp = icmp ne ptr %3, null
  br i1 %cmp, label %if.then, label %if.else

if.then:                                          ; preds = %do.body
  br label %if.end

if.else:                                          ; preds = %do.body
  call void @g_assertion_message_expr(ptr noundef null, ptr noundef @.str.218, i32 noundef 1279, ptr noundef @__func__.riscv_get_misa_ext_name, ptr noundef @.str.220) #8
  unreachable

if.end:                                           ; preds = %if.then
  br label %do.end

do.end:                                           ; preds = %if.end
  %4 = load ptr, ptr %val, align 8
  ret ptr %4
}